target datalayout = "e-m:e-p270:32:32-p271:32:32-p272:64:64-i64:64-i128:128-f80:128-n8:16:32:64-S128"
target triple = "x86_64-pc-linux-gnu"

%struct._typeobject = type { %struct.PyVarObject, ptr, i64, i64, ptr, i64, ptr, ptr, ptr, ptr, ptr, ptr, ptr, ptr, ptr, ptr, ptr, ptr, ptr, i64, ptr, ptr, ptr, ptr, i64, ptr, ptr, ptr, ptr, ptr, ptr, ptr, ptr, ptr, i64, ptr, ptr, ptr, ptr, ptr, ptr, ptr, ptr, ptr, ptr, ptr, i32, ptr, ptr, i8, i16 }
%struct.PyVarObject = type { %struct._object, i64 }
%struct._object = type { %union.anon, ptr }
%union.anon = type { i64 }
%struct.PyASCIIObject = type { %struct._object, i64, i64, %struct.anon.46 }
%struct.anon.46 = type { i16, i16 }
%struct.PyDictObject = type { %struct._object, i64, i64, ptr, ptr }
%struct._dictvalues = type { i8, i8, i8, i8, [1 x ptr] }
%struct.anon = type { i32, i32 }

@PyUnicode_Type = external global %struct._typeobject, align 8

; Function Attrs: alwaysinline nounwind uwtable
define internal void @Py_INCREF(ptr noundef %0) #6 {
  %2 = alloca ptr, align 8
  %3 = alloca i32, align 4
  %4 = alloca i32, align 4
  store ptr %0, ptr %2, align 8, !tbaa !27
  call void @llvm.lifetime.start.p0(i64 4, ptr %3) #10
  %5 = load ptr, ptr %2, align 8, !tbaa !27
  %6 = getelementptr inbounds nuw %struct._object, ptr %5, i32 0, i32 0
  %7 = getelementptr inbounds nuw %struct.anon, ptr %6, i32 0, i32 0
  %8 = load i32, ptr %7, align 8, !tbaa !38
  store i32 %8, ptr %3, align 4, !tbaa !28
  %9 = load i32, ptr %3, align 4, !tbaa !28
  %10 = icmp slt i32 %9, 0
  br i1 %10, label %11, label %12

11:                                               ; preds = %1
  store i32 1, ptr %4, align 4
  br label %18

12:                                               ; preds = %1
  %13 = load i32, ptr %3, align 4, !tbaa !28
  %14 = add i32 %13, 1
  %15 = load ptr, ptr %2, align 8, !tbaa !27
  %16 = getelementptr inbounds nuw %struct._object, ptr %15, i32 0, i32 0
  %17 = getelementptr inbounds nuw %struct.anon, ptr %16, i32 0, i32 0
  store i32 %14, ptr %17, align 8, !tbaa !38
  store i32 0, ptr %4, align 4
  br label %18

18:                                               ; preds = %12, %11
  call void @llvm.lifetime.end.p0(i64 4, ptr %3) #10
  %19 = load i32, ptr %4, align 4
  switch i32 %19, label %21 [
    i32 0, label %20
    i32 1, label %20
  ]

20:                                               ; preds = %18, %18
  ret void

21:                                               ; preds = %18
  unreachable
}

; Function Attrs: inlinehint nounwind uwtable
define internal ptr @_Py_NewRef(ptr noundef %0) #2 {
  %2 = alloca ptr, align 8
  store ptr %0, ptr %2, align 8, !tbaa !27
  %3 = load ptr, ptr %2, align 8, !tbaa !27
  call void @Py_INCREF(ptr noundef %3)
  %4 = load ptr, ptr %2, align 8, !tbaa !27
  ret ptr %4
}

; Function Attrs: inlinehint nounwind uwtable
define internal i32 @Py_IS_TYPE(ptr noundef %0, ptr noundef %1) #2 {
  %3 = alloca ptr, align 8
  %4 = alloca ptr, align 8
  store ptr %0, ptr %3, align 8, !tbaa !27
  store ptr %1, ptr %4, align 8, !tbaa !56
  %5 = load ptr, ptr %3, align 8, !tbaa !27
  %6 = call ptr @_Py_TYPE(ptr noundef %5)
  %7 = load ptr, ptr %4, align 8, !tbaa !56
  %8 = icmp eq ptr %6, %7
  %9 = zext i1 %8 to i32
  ret i32 %9
}

; Function Attrs: nounwind uwtable
define internal i32 @setitem_lock_held(ptr noundef %0, ptr noundef %1, ptr noundef %2) #0 {
  %4 = alloca ptr, align 8
  %5 = alloca ptr, align 8
  %6 = alloca ptr, align 8
  store ptr %0, ptr %4, align 8, !tbaa !29
  store ptr %1, ptr %5, align 8, !tbaa !27
  store ptr %2, ptr %6, align 8, !tbaa !27
  %7 = load ptr, ptr %4, align 8, !tbaa !29
  %8 = load ptr, ptr %5, align 8, !tbaa !27
  %9 = call ptr @_Py_NewRef(ptr noundef %8)
  %10 = load ptr, ptr %6, align 8, !tbaa !27
  %11 = call ptr @_Py_NewRef(ptr noundef %10)
  %12 = call i32 @setitem_take2_lock_held(ptr noundef %7, ptr noundef %9, ptr noundef %11)
  ret i32 %12
}

; Function Attrs: inlinehint nounwind uwtable
define internal i64 @_PyObject_HashFast(ptr noundef %0) #2 {
  %2 = alloca i64, align 8
  %3 = alloca ptr, align 8
  %4 = alloca i64, align 8
  %5 = alloca i32, align 4
  store ptr %0, ptr %3, align 8, !tbaa !27
  %6 = load ptr, ptr %3, align 8, !tbaa !27
  %7 = call i32 @Py_IS_TYPE(ptr noundef %6, ptr noundef @PyUnicode_Type)
  %8 = icmp ne i32 %7, 0
  br i1 %8, label %9, label %21

9:                                                ; preds = %1
  call void @llvm.lifetime.start.p0(i64 8, ptr %4) #10
  %10 = load ptr, ptr %3, align 8, !tbaa !27
  %11 = getelementptr inbounds nuw %struct.PyASCIIObject, ptr %10, i32 0, i32 2
  %12 = load i64, ptr %11, align 8, !tbaa !67
  store i64 %12, ptr %4, align 8, !tbaa !39
  %13 = load i64, ptr %4, align 8, !tbaa !39
  %14 = icmp ne i64 %13, -1
  br i1 %14, label %15, label %17

15:                                               ; preds = %9
  %16 = load i64, ptr %4, align 8, !tbaa !39
  store i64 %16, ptr %2, align 8
  store i32 1, ptr %5, align 4
  br label %18

17:                                               ; preds = %9
  store i32 0, ptr %5, align 4
  br label %18

18:                                               ; preds = %17, %15
  call void @llvm.lifetime.end.p0(i64 8, ptr %4) #10
  %19 = load i32, ptr %5, align 4
  switch i32 %19, label %26 [
    i32 0, label %20
    i32 1, label %24
  ]

20:                                               ; preds = %18
  br label %21

21:                                               ; preds = %20, %1
  %22 = load ptr, ptr %3, align 8, !tbaa !27
  %23 = call i64 @PyObject_Hash(ptr noundef %22)
  store i64 %23, ptr %2, align 8
  br label %24

24:                                               ; preds = %21, %18
  %25 = load i64, ptr %2, align 8
  ret i64 %25

26:                                               ; preds = %18
  unreachable
}

; Function Attrs: alwaysinline nounwind uwtable
define internal i32 @_Py_IsImmortal(ptr noundef %0) #6 {
  %2 = alloca ptr, align 8
  store ptr %0, ptr %2, align 8, !tbaa !27
  %3 = load ptr, ptr %2, align 8, !tbaa !27
  %4 = getelementptr inbounds nuw %struct._object, ptr %3, i32 0, i32 0
  %5 = getelementptr inbounds nuw %struct.anon, ptr %4, i32 0, i32 0
  %6 = load i32, ptr %5, align 8, !tbaa !38
  %7 = icmp slt i32 %6, 0
  %8 = zext i1 %7 to i32
  ret i32 %8
}

; Function Attrs: nounwind uwtable
define hidden i32 @_PyDict_SetItem_LockHeld(ptr noundef %0, ptr noundef %1, ptr noundef %2) #0 {
  %4 = alloca i32, align 4
  %5 = alloca ptr, align 8
  %6 = alloca ptr, align 8
  %7 = alloca ptr, align 8
  %8 = alloca i64, align 8
  %9 = alloca i32, align 4
  store ptr %0, ptr %5, align 8, !tbaa !29
  store ptr %1, ptr %6, align 8, !tbaa !27
  store ptr %2, ptr %7, align 8, !tbaa !27
  %10 = load ptr, ptr %7, align 8, !tbaa !27
  %11 = icmp eq ptr %10, null
  br i1 %11, label %12, label %24

12:                                               ; preds = %3
  call void @llvm.lifetime.start.p0(i64 8, ptr %8) #10
  %13 = load ptr, ptr %6, align 8, !tbaa !27
  %14 = call i64 @_PyObject_HashFast(ptr noundef %13)
  store i64 %14, ptr %8, align 8, !tbaa !39
  %15 = load i64, ptr %8, align 8, !tbaa !39
  %16 = icmp eq i64 %15, -1
  br i1 %16, label %17, label %18

17:                                               ; preds = %12
  store i32 -1, ptr %4, align 4
  store i32 1, ptr %9, align 4
  br label %23

18:                                               ; preds = %12
  %19 = load ptr, ptr %5, align 8, !tbaa !29
  %20 = load ptr, ptr %6, align 8, !tbaa !27
  %21 = load i64, ptr %8, align 8, !tbaa !39
  %22 = call i32 @delitem_knownhash_lock_held(ptr noundef %19, ptr noundef %20, i64 noundef %21)
  store i32 %22, ptr %4, align 4
  store i32 1, ptr %9, align 4
  br label %23

23:                                               ; preds = %18, %17
  call void @llvm.lifetime.end.p0(i64 8, ptr %8) #10
  br label %29

24:                                               ; preds = %3
  %25 = load ptr, ptr %5, align 8, !tbaa !29
  %26 = load ptr, ptr %6, align 8, !tbaa !27
  %27 = load ptr, ptr %7, align 8, !tbaa !27
  %28 = call i32 @setitem_lock_held(ptr noundef %25, ptr noundef %26, ptr noundef %27)
  store i32 %28, ptr %4, align 4
  br label %29

29:                                               ; preds = %24, %23
  %30 = load i32, ptr %4, align 4
  ret i32 %30
}

; Function Attrs: inlinehint nounwind uwtable
define internal ptr @_PyObject_ManagedDictPointer(ptr noundef %0) #2 {
  %2 = alloca ptr, align 8
  store ptr %0, ptr %2, align 8, !tbaa !27
  %3 = load ptr, ptr %2, align 8, !tbaa !27
  %4 = getelementptr i8, ptr %3, i64 -24
  ret ptr %4
}

; Function Attrs: inlinehint nounwind uwtable
define internal ptr @_Py_TYPE(ptr noundef %0) #2 {
  %2 = alloca ptr, align 8
  store ptr %0, ptr %2, align 8, !tbaa !27
  %3 = load ptr, ptr %2, align 8, !tbaa !27
  %4 = getelementptr inbounds nuw %struct._object, ptr %3, i32 0, i32 1
  %5 = load ptr, ptr %4, align 8, !tbaa !65
  ret ptr %5
}

; Function Attrs: alwaysinline nounwind uwtable
define internal void @Py_DECREF(ptr noundef %0) #6 {
  %2 = alloca ptr, align 8
  store ptr %0, ptr %2, align 8, !tbaa !27
  %3 = load ptr, ptr %2, align 8, !tbaa !27
  %4 = call i32 @_Py_IsImmortal(ptr noundef %3)
  %5 = icmp ne i32 %4, 0
  br i1 %5, label %6, label %7

6:                                                ; preds = %1
  br label %16

7:                                                ; preds = %1
  %8 = load ptr, ptr %2, align 8, !tbaa !27
  %9 = getelementptr inbounds nuw %struct._object, ptr %8, i32 0, i32 0
  %10 = getelementptr inbounds nuw %struct.anon, ptr %9, i32 0, i32 0
  %11 = load i32, ptr %10, align 8, !tbaa !38
  %12 = add i32 %11, -1
  store i32 %12, ptr %10, align 8, !tbaa !38
  %13 = icmp eq i32 %12, 0
  br i1 %13, label %14, label %16

14:                                               ; preds = %7
  %15 = load ptr, ptr %2, align 8, !tbaa !27
  call void @_Py_Dealloc(ptr noundef %15)
  br label %16

16:                                               ; preds = %6, %14, %7
  ret void
}

; Function Attrs: inlinehint nounwind uwtable
define internal i32 @store_instance_attr_dict(ptr noundef %0, ptr noundef %1, ptr noundef %2, ptr noundef %3) #2 {
  %5 = alloca ptr, align 8
  %6 = alloca ptr, align 8
  %7 = alloca ptr, align 8
  %8 = alloca ptr, align 8
  %9 = alloca ptr, align 8
  %10 = alloca i32, align 4
  store ptr %0, ptr %5, align 8, !tbaa !27
  store ptr %1, ptr %6, align 8, !tbaa !29
  store ptr %2, ptr %7, align 8, !tbaa !27
  store ptr %3, ptr %8, align 8, !tbaa !27
  call void @llvm.lifetime.start.p0(i64 8, ptr %9) #10
  %11 = load ptr, ptr %5, align 8, !tbaa !27
  %12 = call ptr @_PyObject_InlineValues(ptr noundef %11)
  store ptr %12, ptr %9, align 8, !tbaa !72
  call void @llvm.lifetime.start.p0(i64 4, ptr %10) #10
  %13 = load ptr, ptr %6, align 8, !tbaa !29
  %14 = getelementptr inbounds nuw %struct.PyDictObject, ptr %13, i32 0, i32 4
  %15 = load ptr, ptr %14, align 8, !tbaa !37
  %16 = load ptr, ptr %9, align 8, !tbaa !72
  %17 = icmp eq ptr %15, %16
  br i1 %17, label %18, label %24

18:                                               ; preds = %4
  %19 = load ptr, ptr %5, align 8, !tbaa !27
  %20 = load ptr, ptr %9, align 8, !tbaa !72
  %21 = load ptr, ptr %7, align 8, !tbaa !27
  %22 = load ptr, ptr %8, align 8, !tbaa !27
  %23 = call i32 @store_instance_attr_lock_held(ptr noundef %19, ptr noundef %20, ptr noundef %21, ptr noundef %22)
  store i32 %23, ptr %10, align 4, !tbaa !28
  br label %29

24:                                               ; preds = %4
  %25 = load ptr, ptr %6, align 8, !tbaa !29
  %26 = load ptr, ptr %7, align 8, !tbaa !27
  %27 = load ptr, ptr %8, align 8, !tbaa !27
  %28 = call i32 @_PyDict_SetItem_LockHeld(ptr noundef %25, ptr noundef %26, ptr noundef %27)
  store i32 %28, ptr %10, align 4, !tbaa !28
  br label %29

29:                                               ; preds = %24, %18
  %30 = load i32, ptr %10, align 4, !tbaa !28
  call void @llvm.lifetime.end.p0(i64 4, ptr %10) #10
  call void @llvm.lifetime.end.p0(i64 8, ptr %9) #10
  ret i32 %30
}

; Function Attrs: inlinehint nounwind uwtable
define internal ptr @_PyObject_GetManagedDict(ptr noundef %0) #2 {
  %2 = alloca ptr, align 8
  %3 = alloca ptr, align 8
  store ptr %0, ptr %2, align 8, !tbaa !27
  call void @llvm.lifetime.start.p0(i64 8, ptr %3) #10
  %4 = load ptr, ptr %2, align 8, !tbaa !27
  %5 = call ptr @_PyObject_ManagedDictPointer(ptr noundef %4)
  store ptr %5, ptr %3, align 8, !tbaa !29
  %6 = load ptr, ptr %3, align 8, !tbaa !29
  %7 = load ptr, ptr %6, align 8, !tbaa !38
  call void @llvm.lifetime.end.p0(i64 8, ptr %3) #10
  ret ptr %7
}

; Function Attrs: inlinehint nounwind uwtable
define internal ptr @_PyObject_InlineValues(ptr noundef %0) #2 {
  %2 = alloca ptr, align 8
  %3 = alloca ptr, align 8
  store ptr %0, ptr %2, align 8, !tbaa !27
  call void @llvm.lifetime.start.p0(i64 8, ptr %3) #10
  %4 = load ptr, ptr %2, align 8, !tbaa !27
  %5 = call ptr @_Py_TYPE(ptr noundef %4)
  store ptr %5, ptr %3, align 8, !tbaa !56
  %6 = load ptr, ptr %2, align 8, !tbaa !27
  %7 = load ptr, ptr %3, align 8, !tbaa !56
  %8 = getelementptr inbounds nuw %struct._typeobject, ptr %7, i32 0, i32 2
  %9 = load i64, ptr %8, align 8, !tbaa !210
  %10 = getelementptr i8, ptr %6, i64 %9
  call void @llvm.lifetime.end.p0(i64 8, ptr %3) #10
  ret ptr %10
}

; Function Attrs: nounwind uwtable
define hidden i32 @_PyObject_StoreInstanceAttribute(ptr noundef %0, ptr noundef %1, ptr noundef %2) #0 {
  %4 = alloca i32, align 4
  %5 = alloca ptr, align 8
  %6 = alloca ptr, align 8
  %7 = alloca ptr, align 8
  %8 = alloca ptr, align 8
  %9 = alloca ptr, align 8
  %10 = alloca i32, align 4
  %11 = alloca i32, align 4
  store ptr %0, ptr %5, align 8, !tbaa !27
  store ptr %1, ptr %6, align 8, !tbaa !27
  store ptr %2, ptr %7, align 8, !tbaa !27
  call void @llvm.lifetime.start.p0(i64 8, ptr %8) #10
  %12 = load ptr, ptr %5, align 8, !tbaa !27
  %13 = call ptr @_PyObject_InlineValues(ptr noundef %12)
  store ptr %13, ptr %8, align 8, !tbaa !72
  %14 = load ptr, ptr %8, align 8, !tbaa !72
  %15 = getelementptr inbounds nuw %struct._dictvalues, ptr %14, i32 0, i32 3
  %16 = load i8, ptr %15, align 1, !tbaa !43
  %17 = icmp ne i8 %16, 0
  br i1 %17, label %44, label %18

18:                                               ; preds = %3
  call void @llvm.lifetime.start.p0(i64 8, ptr %9) #10
  %19 = load ptr, ptr %5, align 8, !tbaa !27
  %20 = call ptr @_PyObject_GetManagedDict(ptr noundef %19)
  store ptr %20, ptr %9, align 8, !tbaa !29
  %21 = load ptr, ptr %9, align 8, !tbaa !29
  %22 = icmp eq ptr %21, null
  br i1 %22, label %23, label %37

23:                                               ; preds = %18
  %24 = load ptr, ptr %5, align 8, !tbaa !27
  %25 = call ptr @PyObject_GenericGetDict(ptr noundef %24, ptr noundef null)
  store ptr %25, ptr %9, align 8, !tbaa !29
  %26 = load ptr, ptr %9, align 8, !tbaa !29
  %27 = icmp eq ptr %26, null
  br i1 %27, label %28, label %29

28:                                               ; preds = %23
  store i32 -1, ptr %4, align 4
  store i32 1, ptr %10, align 4
  br label %43

29:                                               ; preds = %23
  call void @llvm.lifetime.start.p0(i64 4, ptr %11) #10
  %30 = load ptr, ptr %5, align 8, !tbaa !27
  %31 = load ptr, ptr %9, align 8, !tbaa !29
  %32 = load ptr, ptr %6, align 8, !tbaa !27
  %33 = load ptr, ptr %7, align 8, !tbaa !27
  %34 = call i32 @store_instance_attr_dict(ptr noundef %30, ptr noundef %31, ptr noundef %32, ptr noundef %33)
  store i32 %34, ptr %11, align 4, !tbaa !28
  %35 = load ptr, ptr %9, align 8, !tbaa !29
  call void @Py_DECREF(ptr noundef %35)
  %36 = load i32, ptr %11, align 4, !tbaa !28
  store i32 %36, ptr %4, align 4
  store i32 1, ptr %10, align 4
  call void @llvm.lifetime.end.p0(i64 4, ptr %11) #10
  br label %43

37:                                               ; preds = %18
  %38 = load ptr, ptr %5, align 8, !tbaa !27
  %39 = load ptr, ptr %9, align 8, !tbaa !29
  %40 = load ptr, ptr %6, align 8, !tbaa !27
  %41 = load ptr, ptr %7, align 8, !tbaa !27
  %42 = call i32 @store_instance_attr_dict(ptr noundef %38, ptr noundef %39, ptr noundef %40, ptr noundef %41)
  store i32 %42, ptr %4, align 4
  store i32 1, ptr %10, align 4
  br label %43

43:                                               ; preds = %37, %29, %28
  call void @llvm.lifetime.end.p0(i64 8, ptr %9) #10
  br label %50

44:                                               ; preds = %3
  %45 = load ptr, ptr %5, align 8, !tbaa !27
  %46 = load ptr, ptr %8, align 8, !tbaa !72
  %47 = load ptr, ptr %6, align 8, !tbaa !27
  %48 = load ptr, ptr %7, align 8, !tbaa !27
  %49 = call i32 @store_instance_attr_lock_held(ptr noundef %45, ptr noundef %46, ptr noundef %47, ptr noundef %48)
  store i32 %49, ptr %4, align 4
  store i32 1, ptr %10, align 4
  br label %50

50:                                               ; preds = %44, %43
  call void @llvm.lifetime.end.p0(i64 8, ptr %8) #10
  %51 = load i32, ptr %4, align 4
  ret i32 %51
}