; Function Attrs: nounwind uwtable
define hidden range(i32 -1, 1) i32 @_PyObject_StoreInstanceAttribute(ptr noundef %0, ptr noundef %1, ptr noundef %2) local_unnamed_addr #0 {
  %4 = getelementptr i8, ptr %0, i64 8
  %.val.i = load ptr, ptr %4, align 8, !tbaa !25
  %5 = getelementptr inbounds nuw i8, ptr %.val.i, i64 32
  %6 = load i64, ptr %5, align 8, !tbaa !175
  %7 = getelementptr i8, ptr %0, i64 %6
  %8 = getelementptr inbounds nuw i8, ptr %7, i64 3
  %9 = load i8, ptr %8, align 1, !tbaa !46
  %.not = icmp eq i8 %9, 0
  br i1 %.not, label %10, label %76

10:                                               ; preds = %3
  %11 = getelementptr i8, ptr %0, i64 -24
  %.val = load ptr, ptr %11, align 8, !tbaa !41
  %12 = icmp eq ptr %.val, null
  br i1 %12, label %13, label %50

13:                                               ; preds = %10
  %14 = tail call ptr @PyObject_GenericGetDict(ptr noundef nonnull %0, ptr poison)
  %15 = icmp eq ptr %14, null
  br i1 %15, label %Py_DECREF.exit, label %16

16:                                               ; preds = %13
  %.val.i.i = load ptr, ptr %4, align 8, !tbaa !25
  %17 = getelementptr inbounds nuw i8, ptr %.val.i.i, i64 32
  %18 = load i64, ptr %17, align 8, !tbaa !175
  %19 = getelementptr i8, ptr %0, i64 %18
  %20 = getelementptr inbounds nuw i8, ptr %14, i64 40
  %21 = load ptr, ptr %20, align 8, !tbaa !40
  %22 = icmp eq ptr %21, %19
  br i1 %22, label %23, label %25

23:                                               ; preds = %16
  %24 = tail call fastcc i32 @store_instance_attr_lock_held(ptr noundef nonnull %0, ptr noundef %19, ptr noundef %1, ptr noundef %2)
  br label %store_instance_attr_dict.exit

25:                                               ; preds = %16
  %26 = icmp eq ptr %2, null
  br i1 %26, label %27, label %35

27:                                               ; preds = %25
  %28 = getelementptr i8, ptr %1, i64 8
  %.val.i.i.i = load ptr, ptr %28, align 8, !tbaa !25
  %.not.i.i.i = icmp eq ptr %.val.i.i.i, @PyUnicode_Type
  br i1 %.not.i.i.i, label %29, label %_PyObject_HashFast.exit.i.i

29:                                               ; preds = %27
  %30 = getelementptr inbounds nuw i8, ptr %1, i64 24
  %31 = load i64, ptr %30, align 8, !tbaa !55
  %.not7.not.i.i.i = icmp eq i64 %31, -1
  br i1 %.not7.not.i.i.i, label %_PyObject_HashFast.exit.i.i, label %_PyObject_HashFast.exit.thread.i.i

_PyObject_HashFast.exit.i.i:                      ; preds = %29, %27
  %32 = tail call i64 @PyObject_Hash(ptr noundef nonnull %1) #23
  %33 = icmp eq i64 %32, -1
  br i1 %33, label %store_instance_attr_dict.exit, label %_PyObject_HashFast.exit.thread.i.i

_PyObject_HashFast.exit.thread.i.i:               ; preds = %_PyObject_HashFast.exit.i.i, %29
  %.1.i12.i.i = phi i64 [ %32, %_PyObject_HashFast.exit.i.i ], [ %31, %29 ]
  %34 = tail call fastcc i32 @delitem_knownhash_lock_held(ptr noundef nonnull %14, ptr noundef nonnull %1, i64 noundef %.1.i12.i.i)
  br label %store_instance_attr_dict.exit

35:                                               ; preds = %25
  %36 = load i32, ptr %1, align 8, !tbaa !41
  %37 = icmp slt i32 %36, 0
  br i1 %37, label %_Py_NewRef.exit.i.i.i, label %38

38:                                               ; preds = %35
  %39 = add nuw i32 %36, 1
  store i32 %39, ptr %1, align 8, !tbaa !41
  br label %_Py_NewRef.exit.i.i.i

_Py_NewRef.exit.i.i.i:                            ; preds = %38, %35
  %40 = load i32, ptr %2, align 8, !tbaa !41
  %41 = icmp slt i32 %40, 0
  br i1 %41, label %setitem_lock_held.exit.i.i, label %42

42:                                               ; preds = %_Py_NewRef.exit.i.i.i
  %43 = add nuw i32 %40, 1
  store i32 %43, ptr %2, align 8, !tbaa !41
  br label %setitem_lock_held.exit.i.i

setitem_lock_held.exit.i.i:                       ; preds = %42, %_Py_NewRef.exit.i.i.i
  %44 = tail call fastcc range(i32 -1, 1) i32 @setitem_take2_lock_held(ptr noundef nonnull %14, ptr noundef nonnull %1, ptr noundef nonnull %2)
  br label %store_instance_attr_dict.exit

store_instance_attr_dict.exit:                    ; preds = %23, %_PyObject_HashFast.exit.i.i, %_PyObject_HashFast.exit.thread.i.i, %setitem_lock_held.exit.i.i
  %.0.i = phi i32 [ %24, %23 ], [ %44, %setitem_lock_held.exit.i.i ], [ %34, %_PyObject_HashFast.exit.thread.i.i ], [ -1, %_PyObject_HashFast.exit.i.i ]
  %45 = load i32, ptr %14, align 8, !tbaa !41
  %.not.i = icmp sgt i32 %45, -1
  br i1 %.not.i, label %46, label %Py_DECREF.exit

46:                                               ; preds = %store_instance_attr_dict.exit
  %47 = add nsw i32 %45, -1
  store i32 %47, ptr %14, align 8, !tbaa !41
  %48 = icmp eq i32 %47, 0
  br i1 %48, label %49, label %Py_DECREF.exit

49:                                               ; preds = %46
  tail call void @_Py_Dealloc(ptr noundef nonnull %14) #23
  br label %Py_DECREF.exit

50:                                               ; preds = %10
  %51 = getelementptr inbounds nuw i8, ptr %.val, i64 40
  %52 = load ptr, ptr %51, align 8, !tbaa !40
  %53 = icmp eq ptr %52, %7
  br i1 %53, label %54, label %56

54:                                               ; preds = %50
  %55 = tail call fastcc i32 @store_instance_attr_lock_held(ptr noundef nonnull %0, ptr noundef %7, ptr noundef %1, ptr noundef %2)
  br label %Py_DECREF.exit

56:                                               ; preds = %50
  %57 = icmp eq ptr %2, null
  br i1 %57, label %58, label %66

58:                                               ; preds = %56
  %59 = getelementptr i8, ptr %1, i64 8
  %.val.i.i.i26 = load ptr, ptr %59, align 8, !tbaa !25
  %.not.i.i.i27 = icmp eq ptr %.val.i.i.i26, @PyUnicode_Type
  br i1 %.not.i.i.i27, label %60, label %_PyObject_HashFast.exit.i.i28

60:                                               ; preds = %58
  %61 = getelementptr inbounds nuw i8, ptr %1, i64 24
  %62 = load i64, ptr %61, align 8, !tbaa !55
  %.not7.not.i.i.i31 = icmp eq i64 %62, -1
  br i1 %.not7.not.i.i.i31, label %_PyObject_HashFast.exit.i.i28, label %_PyObject_HashFast.exit.thread.i.i29

_PyObject_HashFast.exit.i.i28:                    ; preds = %60, %58
  %63 = tail call i64 @PyObject_Hash(ptr noundef nonnull %1) #23
  %64 = icmp eq i64 %63, -1
  br i1 %64, label %Py_DECREF.exit, label %_PyObject_HashFast.exit.thread.i.i29

_PyObject_HashFast.exit.thread.i.i29:             ; preds = %_PyObject_HashFast.exit.i.i28, %60
  %.1.i12.i.i30 = phi i64 [ %63, %_PyObject_HashFast.exit.i.i28 ], [ %62, %60 ]
  %65 = tail call fastcc i32 @delitem_knownhash_lock_held(ptr noundef nonnull %.val, ptr noundef nonnull %1, i64 noundef %.1.i12.i.i30)
  br label %Py_DECREF.exit

66:                                               ; preds = %56
  %67 = load i32, ptr %1, align 8, !tbaa !41
  %68 = icmp slt i32 %67, 0
  br i1 %68, label %_Py_NewRef.exit.i.i.i23, label %69

69:                                               ; preds = %66
  %70 = add nuw i32 %67, 1
  store i32 %70, ptr %1, align 8, !tbaa !41
  br label %_Py_NewRef.exit.i.i.i23

_Py_NewRef.exit.i.i.i23:                          ; preds = %69, %66
  %71 = load i32, ptr %2, align 8, !tbaa !41
  %72 = icmp slt i32 %71, 0
  br i1 %72, label %setitem_lock_held.exit.i.i24, label %73

73:                                               ; preds = %_Py_NewRef.exit.i.i.i23
  %74 = add nuw i32 %71, 1
  store i32 %74, ptr %2, align 8, !tbaa !41
  br label %setitem_lock_held.exit.i.i24

setitem_lock_held.exit.i.i24:                     ; preds = %73, %_Py_NewRef.exit.i.i.i23
  %75 = tail call fastcc range(i32 -1, 1) i32 @setitem_take2_lock_held(ptr noundef nonnull %.val, ptr noundef nonnull %1, ptr noundef nonnull %2)
  br label %Py_DECREF.exit

76:                                               ; preds = %3
  %77 = tail call fastcc i32 @store_instance_attr_lock_held(ptr noundef nonnull %0, ptr noundef %7, ptr noundef %1, ptr noundef %2)
  br label %Py_DECREF.exit

Py_DECREF.exit:                                   ; preds = %setitem_lock_held.exit.i.i24, %_PyObject_HashFast.exit.thread.i.i29, %_PyObject_HashFast.exit.i.i28, %54, %49, %46, %store_instance_attr_dict.exit, %13, %76
  %.1 = phi i32 [ %77, %76 ], [ -1, %13 ], [ %.0.i, %store_instance_attr_dict.exit ], [ %.0.i, %46 ], [ %.0.i, %49 ], [ %55, %54 ], [ %75, %setitem_lock_held.exit.i.i24 ], [ %65, %_PyObject_HashFast.exit.thread.i.i29 ], [ -1, %_PyObject_HashFast.exit.i.i28 ]
  ret i32 %.1
}